target datalayout = "e-m:e-p270:32:32-p271:32:32-p272:64:64-i64:64-i128:128-f80:128-n8:16:32:64-S128"
target triple = "x86_64-pc-linux-gnu"

%struct.free_envelope_list = type { ptr, ptr }
%struct.envelope = type { i32, ptr, ptr, ptr, ptr, i64, ptr, i32, %struct.tMPI_Atomic, i32, ptr, ptr, i32, ptr, ptr, ptr, ptr }
%struct.tMPI_Atomic = type { i32, [60 x i8] }
%struct.send_envelope_list = type { ptr, %struct.tMPI_Atomic_ptr, %struct.tMPI_Atomic_ptr, ptr, ptr, i64 }
%struct.tMPI_Atomic_ptr = type { ptr, [56 x i8] }
%struct.recv_envelope_list = type { ptr, %struct.envelope }
%struct.req_list = type { ptr, ptr }
%struct.tmpi_thread = type { ptr, %struct.recv_envelope_list, ptr, %struct.free_envelope_list, %struct.tMPI_Atomic, %struct.tMPI_Event_t, %struct.req_list, ptr, ptr, ptr, ptr, i32, ptr }
%struct.tMPI_Event_t = type { %struct.tMPI_Atomic, i32 }
%struct.tmpi_datatype_ = type { i64, ptr, i32, ptr, i32 }

@TMPI_COMM_WORLD = external global ptr, align 8
@threads = external global ptr, align 8
@Nthreads = external global i32, align 4

; Function Attrs: mustprogress uwtable
define internal noundef ptr @_ZL29tMPI_Free_env_list_fetch_recvP18free_envelope_list(ptr noundef %0) #0 {
  %2 = alloca ptr, align 8
  %3 = alloca ptr, align 8
  %4 = alloca ptr, align 8
  %5 = alloca i32, align 4
  store ptr %0, ptr %3, align 8, !tbaa !3
  call void @llvm.lifetime.start.p0(i64 8, ptr %4) #7
  %6 = load ptr, ptr %3, align 8, !tbaa !3
  %7 = getelementptr inbounds nuw %struct.free_envelope_list, ptr %6, i32 0, i32 0
  %8 = load ptr, ptr %7, align 8, !tbaa !13
  %9 = icmp ne ptr %8, null
  br i1 %9, label %13, label %10

10:                                               ; preds = %1
  %11 = load ptr, ptr @TMPI_COMM_WORLD, align 8, !tbaa !52
  %12 = call noundef i32 @_Z10tMPI_ErrorP10tmpi_comm_i(ptr noundef %11, i32 noundef 20)
  store ptr null, ptr %2, align 8
  store i32 1, ptr %5, align 4
  br label %27

13:                                               ; preds = %1
  %14 = load ptr, ptr %3, align 8, !tbaa !3
  %15 = getelementptr inbounds nuw %struct.free_envelope_list, ptr %14, i32 0, i32 0
  %16 = load ptr, ptr %15, align 8, !tbaa !13
  store ptr %16, ptr %4, align 8, !tbaa !53
  %17 = load ptr, ptr %4, align 8, !tbaa !53
  %18 = getelementptr inbounds nuw %struct.envelope, ptr %17, i32 0, i32 11
  %19 = load ptr, ptr %18, align 8, !tbaa !14
  %20 = load ptr, ptr %3, align 8, !tbaa !3
  %21 = getelementptr inbounds nuw %struct.free_envelope_list, ptr %20, i32 0, i32 0
  store ptr %19, ptr %21, align 8, !tbaa !13
  %22 = load ptr, ptr %4, align 8, !tbaa !53
  %23 = getelementptr inbounds nuw %struct.envelope, ptr %22, i32 0, i32 11
  store ptr null, ptr %23, align 8, !tbaa !14
  %24 = load ptr, ptr %4, align 8, !tbaa !53
  %25 = getelementptr inbounds nuw %struct.envelope, ptr %24, i32 0, i32 10
  store ptr null, ptr %25, align 8, !tbaa !32
  %26 = load ptr, ptr %4, align 8, !tbaa !53
  store ptr %26, ptr %2, align 8
  store i32 1, ptr %5, align 4
  br label %27

27:                                               ; preds = %13, %10
  call void @llvm.lifetime.end.p0(i64 8, ptr %4) #7
  %28 = load ptr, ptr %2, align 8
  ret ptr %28
}

; Function Attrs: mustprogress nounwind uwtable
define internal void @_ZL22tMPI_Recv_env_list_addP18recv_envelope_listP8envelope(ptr noundef %0, ptr noundef %1) #3 {
  %3 = alloca ptr, align 8
  %4 = alloca ptr, align 8
  store ptr %0, ptr %3, align 8, !tbaa !38
  store ptr %1, ptr %4, align 8, !tbaa !53
  %5 = load ptr, ptr %3, align 8, !tbaa !38
  %6 = load ptr, ptr %4, align 8, !tbaa !53
  %7 = getelementptr inbounds nuw %struct.envelope, ptr %6, i32 0, i32 15
  store ptr %5, ptr %7, align 8, !tbaa !23
  %8 = load ptr, ptr %3, align 8, !tbaa !38
  %9 = getelementptr inbounds nuw %struct.recv_envelope_list, ptr %8, i32 0, i32 0
  %10 = load ptr, ptr %9, align 8, !tbaa !39
  %11 = load ptr, ptr %4, align 8, !tbaa !53
  %12 = getelementptr inbounds nuw %struct.envelope, ptr %11, i32 0, i32 11
  store ptr %10, ptr %12, align 8, !tbaa !14
  %13 = load ptr, ptr %3, align 8, !tbaa !38
  %14 = getelementptr inbounds nuw %struct.recv_envelope_list, ptr %13, i32 0, i32 0
  %15 = load ptr, ptr %14, align 8, !tbaa !39
  %16 = getelementptr inbounds nuw %struct.envelope, ptr %15, i32 0, i32 10
  %17 = load ptr, ptr %16, align 8, !tbaa !32
  %18 = load ptr, ptr %4, align 8, !tbaa !53
  %19 = getelementptr inbounds nuw %struct.envelope, ptr %18, i32 0, i32 10
  store ptr %17, ptr %19, align 8, !tbaa !32
  %20 = load ptr, ptr %4, align 8, !tbaa !53
  %21 = load ptr, ptr %4, align 8, !tbaa !53
  %22 = getelementptr inbounds nuw %struct.envelope, ptr %21, i32 0, i32 11
  %23 = load ptr, ptr %22, align 8, !tbaa !14
  %24 = getelementptr inbounds nuw %struct.envelope, ptr %23, i32 0, i32 10
  store ptr %20, ptr %24, align 8, !tbaa !32
  %25 = load ptr, ptr %4, align 8, !tbaa !53
  %26 = load ptr, ptr %4, align 8, !tbaa !53
  %27 = getelementptr inbounds nuw %struct.envelope, ptr %26, i32 0, i32 10
  %28 = load ptr, ptr %27, align 8, !tbaa !32
  %29 = getelementptr inbounds nuw %struct.envelope, ptr %28, i32 0, i32 11
  store ptr %25, ptr %29, align 8, !tbaa !14
  ret void
}

; Function Attrs: mustprogress uwtable
define internal noundef ptr @_ZL23tMPI_Prep_recv_envelopeP11tmpi_threadP10tmpi_comm_S0_S0_PviP14tmpi_datatype_ii(ptr noundef %0, ptr noundef %1, ptr noundef %2, ptr noundef %3, ptr noundef %4, i32 noundef %5, ptr noundef %6, i32 noundef %7, i32 noundef %8) #0 {
  %10 = alloca ptr, align 8
  %11 = alloca ptr, align 8
  %12 = alloca ptr, align 8
  %13 = alloca ptr, align 8
  %14 = alloca ptr, align 8
  %15 = alloca ptr, align 8
  %16 = alloca i32, align 4
  %17 = alloca ptr, align 8
  %18 = alloca i32, align 4
  %19 = alloca i32, align 4
  %20 = alloca ptr, align 8
  %21 = alloca i32, align 4
  store ptr %0, ptr %11, align 8, !tbaa !72
  store ptr %1, ptr %12, align 8, !tbaa !52
  store ptr %2, ptr %13, align 8, !tbaa !72
  store ptr %3, ptr %14, align 8, !tbaa !72
  store ptr %4, ptr %15, align 8, !tbaa !73
  store i32 %5, ptr %16, align 4, !tbaa !8
  store ptr %6, ptr %17, align 8, !tbaa !74
  store i32 %7, ptr %18, align 4, !tbaa !8
  store i32 %8, ptr %19, align 4, !tbaa !8
  call void @llvm.lifetime.start.p0(i64 8, ptr %20) #7
  %22 = load ptr, ptr %11, align 8, !tbaa !72
  %23 = getelementptr inbounds nuw %struct.tmpi_thread, ptr %22, i32 0, i32 3
  %24 = call noundef ptr @_ZL29tMPI_Free_env_list_fetch_recvP18free_envelope_list(ptr noundef %23)
  store ptr %24, ptr %20, align 8, !tbaa !53
  %25 = load ptr, ptr %20, align 8, !tbaa !53
  %26 = icmp eq ptr %25, null
  br i1 %26, label %27, label %28

27:                                               ; preds = %9
  store ptr null, ptr %10, align 8
  store i32 1, ptr %21, align 4
  br label %78

28:                                               ; preds = %9
  %29 = load i32, ptr %18, align 4, !tbaa !8
  %30 = load ptr, ptr %20, align 8, !tbaa !53
  %31 = getelementptr inbounds nuw %struct.envelope, ptr %30, i32 0, i32 0
  store i32 %29, ptr %31, align 8, !tbaa !82
  %32 = load i32, ptr %19, align 4, !tbaa !8
  %33 = load ptr, ptr %20, align 8, !tbaa !53
  %34 = getelementptr inbounds nuw %struct.envelope, ptr %33, i32 0, i32 7
  store i32 %32, ptr %34, align 8, !tbaa !83
  %35 = load ptr, ptr %12, align 8, !tbaa !52
  %36 = load ptr, ptr %20, align 8, !tbaa !53
  %37 = getelementptr inbounds nuw %struct.envelope, ptr %36, i32 0, i32 1
  store ptr %35, ptr %37, align 8, !tbaa !58
  %38 = load ptr, ptr %13, align 8, !tbaa !72
  %39 = load ptr, ptr %20, align 8, !tbaa !53
  %40 = getelementptr inbounds nuw %struct.envelope, ptr %39, i32 0, i32 2
  store ptr %38, ptr %40, align 8, !tbaa !56
  %41 = load ptr, ptr %14, align 8, !tbaa !72
  %42 = load ptr, ptr %20, align 8, !tbaa !53
  %43 = getelementptr inbounds nuw %struct.envelope, ptr %42, i32 0, i32 3
  store ptr %41, ptr %43, align 8, !tbaa !84
  %44 = load ptr, ptr %15, align 8, !tbaa !73
  %45 = load ptr, ptr %20, align 8, !tbaa !53
  %46 = getelementptr inbounds nuw %struct.envelope, ptr %45, i32 0, i32 4
  store ptr %44, ptr %46, align 8, !tbaa !85
  %47 = load i32, ptr %16, align 4, !tbaa !8
  %48 = sext i32 %47 to i64
  %49 = load ptr, ptr %17, align 8, !tbaa !74
  %50 = getelementptr inbounds nuw %struct.tmpi_datatype_, ptr %49, i32 0, i32 0
  %51 = load i64, ptr %50, align 8, !tbaa !86
  %52 = mul i64 %48, %51
  %53 = load ptr, ptr %20, align 8, !tbaa !53
  %54 = getelementptr inbounds nuw %struct.envelope, ptr %53, i32 0, i32 5
  store i64 %52, ptr %54, align 8, !tbaa !89
  %55 = load ptr, ptr %17, align 8, !tbaa !74
  %56 = load ptr, ptr %20, align 8, !tbaa !53
  %57 = getelementptr inbounds nuw %struct.envelope, ptr %56, i32 0, i32 6
  store ptr %55, ptr %57, align 8, !tbaa !90
  %58 = load ptr, ptr %20, align 8, !tbaa !53
  %59 = getelementptr inbounds nuw %struct.envelope, ptr %58, i32 0, i32 12
  store i32 0, ptr %59, align 8, !tbaa !91
  %60 = load ptr, ptr %20, align 8, !tbaa !53
  %61 = getelementptr inbounds nuw %struct.envelope, ptr %60, i32 0, i32 16
  store ptr null, ptr %61, align 8, !tbaa !24
  %62 = load ptr, ptr %20, align 8, !tbaa !53
  %63 = getelementptr inbounds nuw %struct.envelope, ptr %62, i32 0, i32 15
  store ptr null, ptr %63, align 8, !tbaa !23
  %64 = load ptr, ptr %20, align 8, !tbaa !53
  %65 = getelementptr inbounds nuw %struct.envelope, ptr %64, i32 0, i32 8
  %66 = getelementptr inbounds nuw %struct.tMPI_Atomic, ptr %65, i32 0, i32 0
  store i32 0, ptr %66, align 4, !tbaa !92
  %67 = load ptr, ptr %20, align 8, !tbaa !53
  %68 = getelementptr inbounds nuw %struct.envelope, ptr %67, i32 0, i32 9
  store i32 0, ptr %68, align 4, !tbaa !93
  %69 = load i32, ptr %16, align 4, !tbaa !8
  %70 = icmp slt i32 %69, 0
  br i1 %70, label %71, label %76

71:                                               ; preds = %28
  %72 = load ptr, ptr %12, align 8, !tbaa !52
  %73 = call noundef i32 @_Z10tMPI_ErrorP10tmpi_comm_i(ptr noundef %72, i32 noundef 13)
  %74 = load ptr, ptr %20, align 8, !tbaa !53
  %75 = getelementptr inbounds nuw %struct.envelope, ptr %74, i32 0, i32 9
  store i32 13, ptr %75, align 4, !tbaa !93
  br label %76

76:                                               ; preds = %71, %28
  %77 = load ptr, ptr %20, align 8, !tbaa !53
  store ptr %77, ptr %10, align 8
  store i32 1, ptr %21, align 4
  br label %78

78:                                               ; preds = %76, %27
  call void @llvm.lifetime.end.p0(i64 8, ptr %20) #7
  %79 = load ptr, ptr %10, align 8
  ret ptr %79
}

; Function Attrs: mustprogress uwtable
define noundef ptr @_Z20tMPI_Post_match_recvP11tmpi_threadP10tmpi_comm_S0_PviP14tmpi_datatype_ii(ptr noundef %0, ptr noundef %1, ptr noundef %2, ptr noundef %3, i32 noundef %4, ptr noundef %5, i32 noundef %6, i32 noundef %7) #0 {
  %9 = alloca ptr, align 8
  %10 = alloca ptr, align 8
  %11 = alloca ptr, align 8
  %12 = alloca ptr, align 8
  %13 = alloca ptr, align 8
  %14 = alloca i32, align 4
  %15 = alloca ptr, align 8
  %16 = alloca i32, align 4
  %17 = alloca i32, align 4
  %18 = alloca ptr, align 8
  %19 = alloca ptr, align 8
  %20 = alloca ptr, align 8
  %21 = alloca i32, align 4
  %22 = alloca i32, align 4
  %23 = alloca i32, align 4
  store ptr %0, ptr %10, align 8, !tbaa !72
  store ptr %1, ptr %11, align 8, !tbaa !52
  store ptr %2, ptr %12, align 8, !tbaa !72
  store ptr %3, ptr %13, align 8, !tbaa !73
  store i32 %4, ptr %14, align 4, !tbaa !8
  store ptr %5, ptr %15, align 8, !tbaa !74
  store i32 %6, ptr %16, align 4, !tbaa !8
  store i32 %7, ptr %17, align 4, !tbaa !8
  call void @llvm.lifetime.start.p0(i64 8, ptr %18) #7
  %24 = load ptr, ptr %10, align 8, !tbaa !72
  store ptr %24, ptr %18, align 8, !tbaa !72
  call void @llvm.lifetime.start.p0(i64 8, ptr %19) #7
  call void @llvm.lifetime.start.p0(i64 8, ptr %20) #7
  store ptr null, ptr %20, align 8, !tbaa !53
  call void @llvm.lifetime.start.p0(i64 4, ptr %21) #7
  %25 = load ptr, ptr %12, align 8, !tbaa !72
  %26 = icmp ne ptr %25, null
  br i1 %26, label %27, label %35

27:                                               ; preds = %8
  %28 = load ptr, ptr %12, align 8, !tbaa !72
  %29 = load ptr, ptr @threads, align 8, !tbaa !72
  %30 = ptrtoint ptr %28 to i64
  %31 = ptrtoint ptr %29 to i64
  %32 = sub i64 %30, %31
  %33 = sdiv exact i64 %32, 424
  %34 = trunc i64 %33 to i32
  br label %37

35:                                               ; preds = %8
  %36 = load i32, ptr @Nthreads, align 4, !tbaa !8
  br label %37

37:                                               ; preds = %35, %27
  %38 = phi i32 [ %34, %27 ], [ %36, %35 ]
  store i32 %38, ptr %21, align 4, !tbaa !8
  call void @llvm.lifetime.start.p0(i64 4, ptr %22) #7
  %39 = load ptr, ptr %10, align 8, !tbaa !72
  %40 = load ptr, ptr %11, align 8, !tbaa !52
  %41 = load ptr, ptr %12, align 8, !tbaa !72
  %42 = load ptr, ptr %18, align 8, !tbaa !72
  %43 = load ptr, ptr %13, align 8, !tbaa !73
  %44 = load i32, ptr %14, align 4, !tbaa !8
  %45 = load ptr, ptr %15, align 8, !tbaa !74
  %46 = load i32, ptr %16, align 4, !tbaa !8
  %47 = load i32, ptr %17, align 4, !tbaa !8
  %48 = call noundef ptr @_ZL23tMPI_Prep_recv_envelopeP11tmpi_threadP10tmpi_comm_S0_S0_PviP14tmpi_datatype_ii(ptr noundef %39, ptr noundef %40, ptr noundef %41, ptr noundef %42, ptr noundef %43, i32 noundef %44, ptr noundef %45, i32 noundef %46, i32 noundef %47)
  store ptr %48, ptr %19, align 8, !tbaa !53
  %49 = load ptr, ptr %19, align 8, !tbaa !53
  %50 = icmp eq ptr %49, null
  br i1 %50, label %51, label %52

51:                                               ; preds = %37
  store ptr null, ptr %9, align 8
  store i32 1, ptr %23, align 4
  br label %99

52:                                               ; preds = %37
  %53 = load ptr, ptr %12, align 8, !tbaa !72
  %54 = icmp ne ptr %53, null
  br i1 %54, label %55, label %64

55:                                               ; preds = %52
  %56 = load ptr, ptr %18, align 8, !tbaa !72
  %57 = getelementptr inbounds nuw %struct.tmpi_thread, ptr %56, i32 0, i32 2
  %58 = load ptr, ptr %57, align 8, !tbaa !75
  %59 = load i32, ptr %21, align 4, !tbaa !8
  %60 = sext i32 %59 to i64
  %61 = getelementptr inbounds %struct.send_envelope_list, ptr %58, i64 %60
  %62 = load ptr, ptr %19, align 8, !tbaa !53
  %63 = call noundef ptr @_ZL29tMPI_Send_env_list_search_oldP18send_envelope_listP8envelope(ptr noundef %61, ptr noundef %62)
  store ptr %63, ptr %20, align 8, !tbaa !53
  br label %86

64:                                               ; preds = %52
  store i32 0, ptr %22, align 4, !tbaa !8
  br label %65

65:                                               ; preds = %82, %64
  %66 = load i32, ptr %22, align 4, !tbaa !8
  %67 = load i32, ptr @Nthreads, align 4, !tbaa !8
  %68 = icmp slt i32 %66, %67
  br i1 %68, label %69, label %85

69:                                               ; preds = %65
  %70 = load ptr, ptr %18, align 8, !tbaa !72
  %71 = getelementptr inbounds nuw %struct.tmpi_thread, ptr %70, i32 0, i32 2
  %72 = load ptr, ptr %71, align 8, !tbaa !75
  %73 = load i32, ptr %22, align 4, !tbaa !8
  %74 = sext i32 %73 to i64
  %75 = getelementptr inbounds %struct.send_envelope_list, ptr %72, i64 %74
  %76 = load ptr, ptr %19, align 8, !tbaa !53
  %77 = call noundef ptr @_ZL29tMPI_Send_env_list_search_oldP18send_envelope_listP8envelope(ptr noundef %75, ptr noundef %76)
  store ptr %77, ptr %20, align 8, !tbaa !53
  %78 = load ptr, ptr %20, align 8, !tbaa !53
  %79 = icmp ne ptr %78, null
  br i1 %79, label %80, label %81

80:                                               ; preds = %69
  br label %85

81:                                               ; preds = %69
  br label %82

82:                                               ; preds = %81
  %83 = load i32, ptr %22, align 4, !tbaa !8
  %84 = add nsw i32 %83, 1
  store i32 %84, ptr %22, align 4, !tbaa !8
  br label %65, !llvm.loop !81

85:                                               ; preds = %80, %65
  br label %86

86:                                               ; preds = %85, %55
  %87 = load ptr, ptr %20, align 8, !tbaa !53
  %88 = icmp ne ptr %87, null
  br i1 %88, label %89, label %93

89:                                               ; preds = %86
  %90 = load ptr, ptr %10, align 8, !tbaa !72
  %91 = load ptr, ptr %20, align 8, !tbaa !53
  %92 = load ptr, ptr %19, align 8, !tbaa !53
  call void @_ZL9tMPI_XferP11tmpi_threadP8envelopeS2_(ptr noundef %90, ptr noundef %91, ptr noundef %92)
  br label %97

93:                                               ; preds = %86
  %94 = load ptr, ptr %18, align 8, !tbaa !72
  %95 = getelementptr inbounds nuw %struct.tmpi_thread, ptr %94, i32 0, i32 1
  %96 = load ptr, ptr %19, align 8, !tbaa !53
  call void @_ZL22tMPI_Recv_env_list_addP18recv_envelope_listP8envelope(ptr noundef %95, ptr noundef %96)
  br label %97

97:                                               ; preds = %93, %89
  %98 = load ptr, ptr %19, align 8, !tbaa !53
  store ptr %98, ptr %9, align 8
  store i32 1, ptr %23, align 4
  br label %99

99:                                               ; preds = %97, %51
  call void @llvm.lifetime.end.p0(i64 4, ptr %22) #7
  call void @llvm.lifetime.end.p0(i64 4, ptr %21) #7
  call void @llvm.lifetime.end.p0(i64 8, ptr %20) #7
  call void @llvm.lifetime.end.p0(i64 8, ptr %19) #7
  call void @llvm.lifetime.end.p0(i64 8, ptr %18) #7
  %100 = load ptr, ptr %9, align 8
  ret ptr %100
}