; Function Attrs: mustprogress uwtable
define noundef ptr @_Z20tMPI_Post_match_recvP11tmpi_threadP10tmpi_comm_S0_PviP14tmpi_datatype_ii(ptr noundef %0, ptr noundef %1, ptr noundef %2, ptr noundef %3, i32 noundef %4, ptr noundef %5, i32 noundef %6, i32 noundef %7) local_unnamed_addr #0 {
  %.not = icmp eq ptr %2, null
  br i1 %.not, label %.split33, label %.split

.split:                                           ; preds = %8
  %9 = ptrtoint ptr %2 to i64
  %10 = load ptr, ptr @threads, align 8, !tbaa !61
  %11 = ptrtoint ptr %10 to i64
  %12 = sub i64 %9, %11
  %13 = sdiv exact i64 %12, 424
  %14 = getelementptr inbounds nuw i8, ptr %0, i64 208
  %15 = load ptr, ptr %14, align 8, !tbaa !9
  %.not.i.i = icmp eq ptr %15, null
  br i1 %.not.i.i, label %_ZL29tMPI_Free_env_list_fetch_recvP18free_envelope_list.exit.thread.i, label %18

_ZL29tMPI_Free_env_list_fetch_recvP18free_envelope_list.exit.thread.i: ; preds = %.split
  %16 = load ptr, ptr @TMPI_COMM_WORLD, align 8, !tbaa !44
  %17 = tail call noundef i32 @_Z10tMPI_ErrorP10tmpi_comm_i(ptr noundef %16, i32 noundef 20)
  br label %_ZL23tMPI_Prep_recv_envelopeP11tmpi_threadP10tmpi_comm_S0_S0_PviP14tmpi_datatype_ii.exit

18:                                               ; preds = %.split
  %19 = getelementptr inbounds nuw i8, ptr %15, i64 136
  %20 = load ptr, ptr %19, align 8, !tbaa !10
  store ptr %20, ptr %14, align 8, !tbaa !9
  %21 = getelementptr inbounds nuw i8, ptr %15, i64 128
  tail call void @llvm.memset.p0.i64(ptr noundef nonnull align 8 dereferenceable(16) %21, i8 0, i64 16, i1 false)
  store i32 %6, ptr %15, align 8, !tbaa !62
  %22 = getelementptr inbounds nuw i8, ptr %15, i64 56
  store i32 %7, ptr %22, align 8, !tbaa !63
  %23 = getelementptr inbounds nuw i8, ptr %15, i64 8
  store ptr %1, ptr %23, align 8, !tbaa !49
  %24 = getelementptr inbounds nuw i8, ptr %15, i64 16
  store ptr %2, ptr %24, align 8, !tbaa !47
  %25 = getelementptr inbounds nuw i8, ptr %15, i64 24
  store ptr %0, ptr %25, align 8, !tbaa !64
  %26 = getelementptr inbounds nuw i8, ptr %15, i64 32
  store ptr %3, ptr %26, align 8, !tbaa !65
  %27 = sext i32 %4 to i64
  %28 = load i64, ptr %5, align 8, !tbaa !66
  %29 = mul i64 %28, %27
  %30 = getelementptr inbounds nuw i8, ptr %15, i64 40
  store i64 %29, ptr %30, align 8, !tbaa !70
  %31 = getelementptr inbounds nuw i8, ptr %15, i64 48
  store ptr %5, ptr %31, align 8, !tbaa !71
  %32 = getelementptr inbounds nuw i8, ptr %15, i64 144
  store i32 0, ptr %32, align 8, !tbaa !72
  %33 = getelementptr inbounds nuw i8, ptr %15, i64 168
  %34 = getelementptr inbounds nuw i8, ptr %15, i64 60
  store i32 0, ptr %34, align 4, !tbaa !73
  %35 = getelementptr inbounds nuw i8, ptr %15, i64 124
  store i32 0, ptr %35, align 4, !tbaa !74
  %36 = icmp slt i32 %4, 0
  tail call void @llvm.memset.p0.i64(ptr noundef nonnull align 8 dereferenceable(16) %33, i8 0, i64 16, i1 false)
  br i1 %36, label %37, label %76

37:                                               ; preds = %18
  %38 = tail call noundef i32 @_Z10tMPI_ErrorP10tmpi_comm_i(ptr noundef %1, i32 noundef 13)
  store i32 13, ptr %35, align 4, !tbaa !74
  br label %76

.split33:                                         ; preds = %8
  %39 = getelementptr inbounds nuw i8, ptr %0, i64 208
  %40 = load ptr, ptr %39, align 8, !tbaa !9
  %.not.i.i40 = icmp eq ptr %40, null
  br i1 %.not.i.i40, label %_ZL29tMPI_Free_env_list_fetch_recvP18free_envelope_list.exit.thread.i41, label %43

_ZL29tMPI_Free_env_list_fetch_recvP18free_envelope_list.exit.thread.i41: ; preds = %.split33
  %41 = load ptr, ptr @TMPI_COMM_WORLD, align 8, !tbaa !44
  %42 = tail call noundef i32 @_Z10tMPI_ErrorP10tmpi_comm_i(ptr noundef %41, i32 noundef 20)
  br label %_ZL23tMPI_Prep_recv_envelopeP11tmpi_threadP10tmpi_comm_S0_S0_PviP14tmpi_datatype_ii.exit

43:                                               ; preds = %.split33
  %44 = getelementptr inbounds nuw i8, ptr %40, i64 136
  %45 = load ptr, ptr %44, align 8, !tbaa !10
  store ptr %45, ptr %39, align 8, !tbaa !9
  %46 = getelementptr inbounds nuw i8, ptr %40, i64 128
  tail call void @llvm.memset.p0.i64(ptr noundef nonnull align 8 dereferenceable(16) %46, i8 0, i64 16, i1 false)
  store i32 %6, ptr %40, align 8, !tbaa !62
  %47 = getelementptr inbounds nuw i8, ptr %40, i64 56
  store i32 %7, ptr %47, align 8, !tbaa !63
  %48 = getelementptr inbounds nuw i8, ptr %40, i64 8
  store ptr %1, ptr %48, align 8, !tbaa !49
  %49 = getelementptr inbounds nuw i8, ptr %40, i64 16
  store ptr null, ptr %49, align 8, !tbaa !47
  %50 = getelementptr inbounds nuw i8, ptr %40, i64 24
  store ptr %0, ptr %50, align 8, !tbaa !64
  %51 = getelementptr inbounds nuw i8, ptr %40, i64 32
  store ptr %3, ptr %51, align 8, !tbaa !65
  %52 = sext i32 %4 to i64
  %53 = load i64, ptr %5, align 8, !tbaa !66
  %54 = mul i64 %53, %52
  %55 = getelementptr inbounds nuw i8, ptr %40, i64 40
  store i64 %54, ptr %55, align 8, !tbaa !70
  %56 = getelementptr inbounds nuw i8, ptr %40, i64 48
  store ptr %5, ptr %56, align 8, !tbaa !71
  %57 = getelementptr inbounds nuw i8, ptr %40, i64 144
  store i32 0, ptr %57, align 8, !tbaa !72
  %58 = getelementptr inbounds nuw i8, ptr %40, i64 168
  %59 = getelementptr inbounds nuw i8, ptr %40, i64 60
  store i32 0, ptr %59, align 4, !tbaa !73
  %60 = getelementptr inbounds nuw i8, ptr %40, i64 124
  store i32 0, ptr %60, align 4, !tbaa !74
  %61 = icmp slt i32 %4, 0
  tail call void @llvm.memset.p0.i64(ptr noundef nonnull align 8 dereferenceable(16) %58, i8 0, i64 16, i1 false)
  br i1 %61, label %62, label %64

62:                                               ; preds = %43
  %63 = tail call noundef i32 @_Z10tMPI_ErrorP10tmpi_comm_i(ptr noundef %1, i32 noundef 13)
  store i32 13, ptr %60, align 4, !tbaa !74
  br label %64

64:                                               ; preds = %43, %62
  %65 = load i32, ptr @Nthreads, align 4, !tbaa !75
  %66 = icmp sgt i32 %65, 0
  br i1 %66, label %.lr.ph, label %.thread50

.lr.ph:                                           ; preds = %64
  %67 = getelementptr inbounds nuw i8, ptr %0, i64 200
  br label %72

68:                                               ; preds = %72
  %indvars.iv.next = add nuw nsw i64 %indvars.iv, 1
  %69 = load i32, ptr @Nthreads, align 4, !tbaa !75
  %70 = sext i32 %69 to i64
  %71 = icmp slt i64 %indvars.iv.next, %70
  br i1 %71, label %72, label %.thread50, !llvm.loop !76

72:                                               ; preds = %.lr.ph, %68
  %indvars.iv = phi i64 [ 0, %.lr.ph ], [ %indvars.iv.next, %68 ]
  %73 = load ptr, ptr %67, align 8, !tbaa !77
  %74 = getelementptr %struct.send_envelope_list, ptr %73, i64 %indvars.iv, i32 3
  %.val39 = load ptr, ptr %74, align 8, !tbaa !33
  %75 = tail call fastcc noundef ptr @_ZL29tMPI_Send_env_list_search_oldP18send_envelope_listP8envelope(ptr %.val39, ptr noundef %40)
  %.not37 = icmp eq ptr %75, null
  br i1 %.not37, label %68, label %.thread55

76:                                               ; preds = %37, %18
  %77 = getelementptr inbounds nuw i8, ptr %0, i64 200
  %78 = load ptr, ptr %77, align 8, !tbaa !77
  %sext = shl i64 %13, 32
  %79 = ashr exact i64 %sext, 32
  %80 = getelementptr %struct.send_envelope_list, ptr %78, i64 %79, i32 3
  %.val = load ptr, ptr %80, align 8, !tbaa !33
  %81 = tail call fastcc noundef ptr @_ZL29tMPI_Send_env_list_search_oldP18send_envelope_listP8envelope(ptr %.val, ptr noundef %15)
  %.not38 = icmp eq ptr %81, null
  br i1 %.not38, label %.thread50, label %.thread55

.thread55:                                        ; preds = %72, %76
  %.03160 = phi ptr [ %81, %76 ], [ %75, %72 ]
  %phi.call.ph4759 = phi ptr [ %15, %76 ], [ %40, %72 ]
  tail call fastcc void @_ZL9tMPI_XferP11tmpi_threadP8envelopeS2_(ptr noundef %.03160, ptr noundef %phi.call.ph4759)
  br label %_ZL23tMPI_Prep_recv_envelopeP11tmpi_threadP10tmpi_comm_S0_S0_PviP14tmpi_datatype_ii.exit

.thread50:                                        ; preds = %68, %64, %76
  %phi.call.ph4754 = phi ptr [ %15, %76 ], [ %40, %64 ], [ %40, %68 ]
  %82 = getelementptr inbounds nuw i8, ptr %0, i64 8
  %83 = getelementptr inbounds nuw i8, ptr %phi.call.ph4754, i64 168
  store ptr %82, ptr %83, align 8, !tbaa !28
  %84 = load ptr, ptr %82, align 8, !tbaa !34
  %85 = getelementptr inbounds nuw i8, ptr %phi.call.ph4754, i64 136
  store ptr %84, ptr %85, align 8, !tbaa !10
  %86 = getelementptr inbounds nuw i8, ptr %84, i64 128
  %87 = load ptr, ptr %86, align 8, !tbaa !26
  %88 = getelementptr inbounds nuw i8, ptr %phi.call.ph4754, i64 128
  store ptr %87, ptr %88, align 8, !tbaa !26
  store ptr %phi.call.ph4754, ptr %86, align 8, !tbaa !26
  %89 = load ptr, ptr %88, align 8, !tbaa !26
  %90 = getelementptr inbounds nuw i8, ptr %89, i64 136
  store ptr %phi.call.ph4754, ptr %90, align 8, !tbaa !10
  br label %_ZL23tMPI_Prep_recv_envelopeP11tmpi_threadP10tmpi_comm_S0_S0_PviP14tmpi_datatype_ii.exit

_ZL23tMPI_Prep_recv_envelopeP11tmpi_threadP10tmpi_comm_S0_S0_PviP14tmpi_datatype_ii.exit: ; preds = %_ZL29tMPI_Free_env_list_fetch_recvP18free_envelope_list.exit.thread.i, %_ZL29tMPI_Free_env_list_fetch_recvP18free_envelope_list.exit.thread.i41, %.thread55, %.thread50
  %.030 = phi ptr [ %phi.call.ph4754, %.thread50 ], [ %phi.call.ph4759, %.thread55 ], [ null, %_ZL29tMPI_Free_env_list_fetch_recvP18free_envelope_list.exit.thread.i41 ], [ null, %_ZL29tMPI_Free_env_list_fetch_recvP18free_envelope_list.exit.thread.i ]
  ret ptr %.030
}